target datalayout = "e-m:e-p270:32:32-p271:32:32-p272:64:64-i64:64-i128:128-f80:128-n8:16:32:64-S128"
target triple = "x86_64-pc-linux-gnu"

@rb_cTimeTM = internal global i64 0, align 8
@rb_time_zone_abbreviation.rbimpl_id = internal global i64 0, align 8
@.str.3 = private unnamed_addr constant [5 x i8] c"abbr\00", align 1
@.str.4 = private unnamed_addr constant [3 x i8] c"%Z\00", align 1
@rb_time_zone_abbreviation.rbimpl_id.5 = internal global i64 0, align 8
@.str.6 = private unnamed_addr constant [9 x i8] c"strftime\00", align 1

; Function Attrs: inlinehint nounwind sspstrong willreturn memory(read) uwtable
define internal i64 @rb_intern_const(ptr noundef nonnull %0) #10 {
  %2 = alloca ptr, align 8
  %3 = alloca i64, align 8
  store ptr %0, ptr %2, align 8, !tbaa !25
  call void @llvm.lifetime.start.p0(i64 8, ptr %3) #22
  %4 = load ptr, ptr %2, align 8, !tbaa !25
  %5 = call i64 @strlen(ptr noundef %4) #25
  store i64 %5, ptr %3, align 8, !tbaa !11
  %6 = load ptr, ptr %2, align 8, !tbaa !25
  %7 = load i64, ptr %3, align 8, !tbaa !11
  %8 = call i64 @rb_intern2(ptr noundef %6, i64 noundef %7)
  call void @llvm.lifetime.end.p0(i64 8, ptr %3) #22
  ret i64 %8
}

; Function Attrs: inlinehint nounwind sspstrong willreturn memory(none) uwtable
define internal zeroext i1 @RB_UNDEF_P(i64 noundef %0) #5 {
  %2 = alloca i64, align 8
  store i64 %0, ptr %2, align 8, !tbaa !11
  %3 = load i64, ptr %2, align 8, !tbaa !11
  %4 = icmp eq i64 %3, 36
  ret i1 %4
}

; Function Attrs: inlinehint nounwind sspstrong memory(argmem: readwrite, inaccessiblemem: readwrite) uwtable
define internal i64 @rbimpl_intern_const(ptr noundef nonnull %0, ptr noundef nonnull %1) #9 {
  %3 = alloca ptr, align 8
  %4 = alloca ptr, align 8
  store ptr %0, ptr %3, align 8, !tbaa !16
  store ptr %1, ptr %4, align 8, !tbaa !25
  br label %5

5:                                                ; preds = %10, %2
  %6 = load ptr, ptr %3, align 8, !tbaa !16
  %7 = load i64, ptr %6, align 8, !tbaa !11
  %8 = icmp ne i64 %7, 0
  %9 = xor i1 %8, true
  br i1 %9, label %10, label %14

10:                                               ; preds = %5
  %11 = load ptr, ptr %4, align 8, !tbaa !25
  %12 = call i64 @rb_intern_const(ptr noundef %11) #25
  %13 = load ptr, ptr %3, align 8, !tbaa !16
  store i64 %12, ptr %13, align 8, !tbaa !11
  br label %5, !llvm.loop !49

14:                                               ; preds = %5
  %15 = load ptr, ptr %3, align 8, !tbaa !16
  %16 = load i64, ptr %15, align 8, !tbaa !11
  ret i64 %16
}

; Function Attrs: inlinehint nounwind sspstrong willreturn memory(none) uwtable
define internal zeroext i1 @RB_NIL_P(i64 noundef %0) #5 {
  %2 = alloca i64, align 8
  store i64 %0, ptr %2, align 8, !tbaa !11
  %3 = load i64, ptr %2, align 8, !tbaa !11
  %4 = icmp eq i64 %3, 4
  ret i1 %4
}

; Function Attrs: nounwind sspstrong uwtable
define hidden i64 @rb_time_zone_abbreviation(i64 noundef %0, i64 noundef %1) #0 {
  %3 = alloca i64, align 8
  %4 = alloca i64, align 8
  %5 = alloca i64, align 8
  %6 = alloca i64, align 8
  %7 = alloca i64, align 8
  %8 = alloca [2 x i64], align 16
  %9 = alloca i32, align 4
  %10 = alloca i64, align 8
  %11 = alloca i64, align 8
  store i64 %0, ptr %4, align 8, !tbaa !11
  store i64 %1, ptr %5, align 8, !tbaa !11
  call void @llvm.lifetime.start.p0(i64 8, ptr %6) #22
  call void @llvm.lifetime.start.p0(i64 8, ptr %7) #22
  call void @llvm.lifetime.start.p0(i64 16, ptr %8) #22
  %12 = load i64, ptr %4, align 8, !tbaa !11
  %13 = call i64 @rb_check_string_type(i64 noundef %12)
  store i64 %13, ptr %7, align 8, !tbaa !11
  %14 = load i64, ptr %7, align 8, !tbaa !11
  %15 = call zeroext i1 @RB_NIL_P(i64 noundef %14) #24
  br i1 %15, label %18, label %16

16:                                               ; preds = %2
  %17 = load i64, ptr %7, align 8, !tbaa !11
  store i64 %17, ptr %3, align 8
  store i32 1, ptr %9, align 4
  br label %48

18:                                               ; preds = %2
  %19 = load i64, ptr @rb_cTimeTM, align 8, !tbaa !11
  %20 = load i64, ptr %5, align 8, !tbaa !11
  %21 = call i64 @tm_from_time(i64 noundef %19, i64 noundef %20)
  store i64 %21, ptr %6, align 8, !tbaa !11
  %22 = load i64, ptr %4, align 8, !tbaa !11
  %23 = call i64 @rbimpl_intern_const(ptr noundef @rb_time_zone_abbreviation.rbimpl_id, ptr noundef @.str.3) #26
  store i64 %23, ptr %10, align 8, !tbaa !11
  %24 = load i64, ptr %10, align 8, !tbaa !11
  %25 = call i64 @rb_check_funcall(i64 noundef %22, i64 noundef %24, i32 noundef 1, ptr noundef %6)
  store i64 %25, ptr %7, align 8, !tbaa !11
  %26 = load i64, ptr %7, align 8, !tbaa !11
  %27 = call zeroext i1 @RB_UNDEF_P(i64 noundef %26) #24
  br i1 %27, label %29, label %28

28:                                               ; preds = %18
  br label %45

29:                                               ; preds = %18
  %30 = call i64 @rb_fstring_new(ptr noundef @.str.4, i64 noundef 2)
  %31 = getelementptr [2 x i64], ptr %8, i64 0, i64 0
  store i64 %30, ptr %31, align 16, !tbaa !11
  %32 = load i64, ptr %6, align 8, !tbaa !11
  %33 = getelementptr [2 x i64], ptr %8, i64 0, i64 1
  store i64 %32, ptr %33, align 8, !tbaa !11
  %34 = load i64, ptr %4, align 8, !tbaa !11
  %35 = call i64 @rbimpl_intern_const(ptr noundef @rb_time_zone_abbreviation.rbimpl_id.5, ptr noundef @.str.6) #26
  store i64 %35, ptr %11, align 8, !tbaa !11
  %36 = load i64, ptr %11, align 8, !tbaa !11
  %37 = getelementptr inbounds [2 x i64], ptr %8, i64 0, i64 0
  %38 = call i64 @rb_check_funcall(i64 noundef %34, i64 noundef %36, i32 noundef 2, ptr noundef %37)
  store i64 %38, ptr %7, align 8, !tbaa !11
  %39 = load i64, ptr %7, align 8, !tbaa !11
  %40 = call zeroext i1 @RB_UNDEF_P(i64 noundef %39) #24
  br i1 %40, label %42, label %41

41:                                               ; preds = %29
  br label %45

42:                                               ; preds = %29
  %43 = load i64, ptr %4, align 8, !tbaa !11
  %44 = call i64 @rb_check_funcall_default(i64 noundef %43, i64 noundef 3633, i32 noundef 0, ptr noundef null, i64 noundef 4)
  store i64 %44, ptr %7, align 8, !tbaa !11
  br label %45

45:                                               ; preds = %42, %41, %28
  %46 = load i64, ptr %7, align 8, !tbaa !11
  %47 = call i64 @rb_obj_as_string(i64 noundef %46)
  store i64 %47, ptr %3, align 8
  store i32 1, ptr %9, align 4
  br label %48

48:                                               ; preds = %45, %16
  call void @llvm.lifetime.end.p0(i64 16, ptr %8) #22
  call void @llvm.lifetime.end.p0(i64 8, ptr %7) #22
  call void @llvm.lifetime.end.p0(i64 8, ptr %6) #22
  %49 = load i64, ptr %3, align 8
  ret i64 %49
}