; Function Attrs: nounwind sspstrong uwtable
define hidden i64 @rb_time_zone_abbreviation(i64 noundef %0, i64 noundef %1) local_unnamed_addr #1 {
  %3 = alloca i64, align 8
  %4 = alloca [2 x i64], align 16
  call void @llvm.lifetime.start.p0(i64 8, ptr nonnull %3) #21
  call void @llvm.lifetime.start.p0(i64 16, ptr nonnull %4) #21
  %5 = tail call i64 @rb_check_string_type(i64 noundef %0) #21
  %6 = icmp eq i64 %5, 4
  br i1 %6, label %7, label %24

7:                                                ; preds = %2
  %8 = load i64, ptr @rb_cTimeTM, align 8, !tbaa !11
  %9 = tail call i64 @tm_from_time(i64 noundef %8, i64 noundef %1)
  store i64 %9, ptr %3, align 8, !tbaa !11
  %.pr.i = load i64, ptr @rb_time_zone_abbreviation.rbimpl_id, align 8, !tbaa !11
  %.not4.i = icmp eq i64 %.pr.i, 0
  br i1 %.not4.i, label %.lr.ph.i, label %rbimpl_intern_const.exit

.lr.ph.i:                                         ; preds = %7, %.lr.ph.i
  %10 = tail call i64 @rb_intern2(ptr noundef nonnull @.str.3, i64 noundef 4) #21
  store i64 %10, ptr @rb_time_zone_abbreviation.rbimpl_id, align 8, !tbaa !11
  %.not.i = icmp eq i64 %10, 0
  br i1 %.not.i, label %.lr.ph.i, label %rbimpl_intern_const.exit, !llvm.loop !43

rbimpl_intern_const.exit:                         ; preds = %.lr.ph.i, %7
  %.lcssa.i = phi i64 [ %.pr.i, %7 ], [ %10, %.lr.ph.i ]
  %11 = call i64 @rb_check_funcall(i64 noundef %0, i64 noundef %.lcssa.i, i32 noundef 1, ptr noundef nonnull %3) #21
  %12 = icmp eq i64 %11, 36
  br i1 %12, label %13, label %22

13:                                               ; preds = %rbimpl_intern_const.exit
  %14 = call i64 @rb_fstring_new(ptr noundef nonnull @.str.4, i64 noundef 2) #21
  store i64 %14, ptr %4, align 16, !tbaa !11
  %15 = load i64, ptr %3, align 8, !tbaa !11
  %16 = getelementptr inbounds nuw i8, ptr %4, i64 8
  store i64 %15, ptr %16, align 8, !tbaa !11
  %.pr.i14 = load i64, ptr @rb_time_zone_abbreviation.rbimpl_id.5, align 8, !tbaa !11
  %.not4.i15 = icmp eq i64 %.pr.i14, 0
  br i1 %.not4.i15, label %.lr.ph.i17, label %rbimpl_intern_const.exit19

.lr.ph.i17:                                       ; preds = %13, %.lr.ph.i17
  %17 = call i64 @rb_intern2(ptr noundef nonnull @.str.6, i64 noundef 8) #21
  store i64 %17, ptr @rb_time_zone_abbreviation.rbimpl_id.5, align 8, !tbaa !11
  %.not.i18 = icmp eq i64 %17, 0
  br i1 %.not.i18, label %.lr.ph.i17, label %rbimpl_intern_const.exit19, !llvm.loop !43

rbimpl_intern_const.exit19:                       ; preds = %.lr.ph.i17, %13
  %.lcssa.i16 = phi i64 [ %.pr.i14, %13 ], [ %17, %.lr.ph.i17 ]
  %18 = call i64 @rb_check_funcall(i64 noundef %0, i64 noundef %.lcssa.i16, i32 noundef 2, ptr noundef nonnull %4) #21
  %19 = icmp eq i64 %18, 36
  br i1 %19, label %20, label %22

20:                                               ; preds = %rbimpl_intern_const.exit19
  %21 = call i64 @rb_check_funcall_default(i64 noundef %0, i64 noundef 3633, i32 noundef 0, ptr noundef null, i64 noundef 4) #21
  br label %22

22:                                               ; preds = %rbimpl_intern_const.exit19, %rbimpl_intern_const.exit, %20
  %.013 = phi i64 [ %21, %20 ], [ %18, %rbimpl_intern_const.exit19 ], [ %11, %rbimpl_intern_const.exit ]
  %23 = call i64 @rb_obj_as_string(i64 noundef %.013) #21
  br label %24

24:                                               ; preds = %2, %22
  %.0 = phi i64 [ %23, %22 ], [ %5, %2 ]
  call void @llvm.lifetime.end.p0(i64 16, ptr nonnull %4) #21
  call void @llvm.lifetime.end.p0(i64 8, ptr nonnull %3) #21
  ret i64 %.0
}